; Function Attrs: mustprogress nofree norecurse nosync nounwind willreturn memory(readwrite, inaccessiblemem: none) uwtable
define dso_local void @_ZN5ImGui17SetNextItemRefValEiPv(i32 noundef %0, ptr noundef readonly captures(none) %1) local_unnamed_addr #8 {
  %3 = load ptr, ptr @GImGui, align 8, !tbaa !4
  %4 = getelementptr inbounds nuw i8, ptr %3, i64 7376
  %5 = load i32, ptr %4, align 8, !tbaa !466
  %6 = or i32 %5, 8
  store i32 %6, ptr %4, align 8, !tbaa !466
  %7 = getelementptr inbounds nuw i8, ptr %3, i64 7414
  %8 = sext i32 %0 to i64
  %9 = getelementptr inbounds [11 x %struct.ImGuiDataTypeInfo], ptr @_ZL13GDataTypeInfo, i64 0, i64 %8
  %10 = load i64, ptr %9, align 16, !tbaa !342
  tail call void @llvm.memcpy.p0.p0.i64(ptr nonnull align 2 %7, ptr align 1 %1, i64 %10, i1 false)
  ret void
}